target datalayout = "e-m:e-p270:32:32-p271:32:32-p272:64:64-i64:64-i128:128-f80:128-n8:16:32:64-S128"
target triple = "x86_64-pc-linux-gnu"

%struct.H5L_info2_t = type { i32, i8, i64, i32, %union.anon }
%union.anon = type { i64, [8 x i8] }
%struct.trav_print_udata_t = type { i64 }

@.str.22 = private unnamed_addr constant [17 x i8] c" %-10s %s -> %s\0A\00", align 1
@.str.23 = private unnamed_addr constant [5 x i8] c"link\00", align 1
@.str.24 = private unnamed_addr constant [14 x i8] c" %-10s %s ->\0A\00", align 1
@.str.25 = private unnamed_addr constant [20 x i8] c" %-10s %s -> %s %s\0A\00", align 1
@.str.26 = private unnamed_addr constant [9 x i8] c"ext link\00", align 1
@.str.27 = private unnamed_addr constant [18 x i8] c" %-10s %s -> ???\0A\00", align 1
@.str.28 = private unnamed_addr constant [24 x i8] c"unknown type of UD link\00", align 1

; Function Attrs: nounwind uwtable
define internal i32 @trav_print_visit_lnk(ptr noundef %0, ptr noundef %1, ptr noundef %2) #0 {
  %4 = alloca i32, align 4
  %5 = alloca ptr, align 8
  %6 = alloca ptr, align 8
  %7 = alloca ptr, align 8
  %8 = alloca ptr, align 8
  %9 = alloca ptr, align 8
  %10 = alloca ptr, align 8
  %11 = alloca ptr, align 8
  %12 = alloca ptr, align 8
  %13 = alloca i32, align 4
  store ptr %0, ptr %5, align 8, !tbaa !10
  store ptr %1, ptr %6, align 8, !tbaa !36
  store ptr %2, ptr %7, align 8, !tbaa !36
  call void @llvm.lifetime.start.p0(i64 8, ptr %8) #10
  %14 = load ptr, ptr %7, align 8, !tbaa !36
  store ptr %14, ptr %8, align 8, !tbaa !36
  %15 = load ptr, ptr %6, align 8, !tbaa !36
  %16 = getelementptr inbounds nuw %struct.H5L_info2_t, ptr %15, i32 0, i32 0
  %17 = load i32, ptr %16, align 8, !tbaa !38
  switch i32 %17, label %105 [
    i32 1, label %18
    i32 64, label %56
    i32 0, label %103
    i32 -1, label %104
    i32 255, label %104
  ]

18:                                               ; preds = %3
  %19 = load ptr, ptr %6, align 8, !tbaa !36
  %20 = getelementptr inbounds nuw %struct.H5L_info2_t, ptr %19, i32 0, i32 4
  %21 = load i64, ptr %20, align 8, !tbaa !31
  %22 = icmp ugt i64 %21, 0
  br i1 %22, label %23, label %52

23:                                               ; preds = %18
  call void @llvm.lifetime.start.p0(i64 8, ptr %9) #10
  %24 = load ptr, ptr %6, align 8, !tbaa !36
  %25 = getelementptr inbounds nuw %struct.H5L_info2_t, ptr %24, i32 0, i32 4
  %26 = load i64, ptr %25, align 8, !tbaa !31
  %27 = add i64 %26, 1
  %28 = call noalias ptr @malloc(i64 noundef %27) #13
  store ptr %28, ptr %9, align 8, !tbaa !10
  %29 = load ptr, ptr %9, align 8, !tbaa !10
  %30 = icmp ne ptr %29, null
  br i1 %30, label %31, label %51

31:                                               ; preds = %23
  %32 = load ptr, ptr %8, align 8, !tbaa !36
  %33 = getelementptr inbounds nuw %struct.trav_print_udata_t, ptr %32, i32 0, i32 0
  %34 = load i64, ptr %33, align 8, !tbaa !103
  %35 = load ptr, ptr %5, align 8, !tbaa !10
  %36 = load ptr, ptr %9, align 8, !tbaa !10
  %37 = load ptr, ptr %6, align 8, !tbaa !36
  %38 = getelementptr inbounds nuw %struct.H5L_info2_t, ptr %37, i32 0, i32 4
  %39 = load i64, ptr %38, align 8, !tbaa !31
  %40 = add i64 %39, 1
  %41 = call i32 @H5Lget_val(i64 noundef %34, ptr noundef %35, ptr noundef %36, i64 noundef %40, i64 noundef 0)
  %42 = icmp slt i32 %41, 0
  br i1 %42, label %43, label %46

43:                                               ; preds = %31
  %44 = load ptr, ptr %9, align 8, !tbaa !10
  %45 = getelementptr inbounds i8, ptr %44, i64 0
  store i8 0, ptr %45, align 1, !tbaa !31
  br label %46

46:                                               ; preds = %43, %31
  %47 = load ptr, ptr %5, align 8, !tbaa !10
  %48 = load ptr, ptr %9, align 8, !tbaa !10
  %49 = call i32 (ptr, ...) @printf(ptr noundef @.str.22, ptr noundef @.str.23, ptr noundef %47, ptr noundef %48)
  %50 = load ptr, ptr %9, align 8, !tbaa !10
  call void @free(ptr noundef %50) #10
  br label %51

51:                                               ; preds = %46, %23
  call void @llvm.lifetime.end.p0(i64 8, ptr %9) #10
  br label %55

52:                                               ; preds = %18
  %53 = load ptr, ptr %5, align 8, !tbaa !10
  %54 = call i32 (ptr, ...) @printf(ptr noundef @.str.24, ptr noundef @.str.23, ptr noundef %53)
  br label %55

55:                                               ; preds = %52, %51
  br label %108

56:                                               ; preds = %3
  %57 = load ptr, ptr %6, align 8, !tbaa !36
  %58 = getelementptr inbounds nuw %struct.H5L_info2_t, ptr %57, i32 0, i32 4
  %59 = load i64, ptr %58, align 8, !tbaa !31
  %60 = icmp ugt i64 %59, 0
  br i1 %60, label %61, label %99

61:                                               ; preds = %56
  call void @llvm.lifetime.start.p0(i64 8, ptr %10) #10
  store ptr null, ptr %10, align 8, !tbaa !10
  call void @llvm.lifetime.start.p0(i64 8, ptr %11) #10
  store ptr null, ptr %11, align 8, !tbaa !10
  call void @llvm.lifetime.start.p0(i64 8, ptr %12) #10
  store ptr null, ptr %12, align 8, !tbaa !10
  %62 = load ptr, ptr %6, align 8, !tbaa !36
  %63 = getelementptr inbounds nuw %struct.H5L_info2_t, ptr %62, i32 0, i32 4
  %64 = load i64, ptr %63, align 8, !tbaa !31
  %65 = add i64 %64, 1
  %66 = call noalias ptr @malloc(i64 noundef %65) #13
  store ptr %66, ptr %10, align 8, !tbaa !10
  %67 = load ptr, ptr %10, align 8, !tbaa !10
  %68 = icmp ne ptr %67, null
  br i1 %68, label %69, label %98

69:                                               ; preds = %61
  %70 = load ptr, ptr %8, align 8, !tbaa !36
  %71 = getelementptr inbounds nuw %struct.trav_print_udata_t, ptr %70, i32 0, i32 0
  %72 = load i64, ptr %71, align 8, !tbaa !103
  %73 = load ptr, ptr %5, align 8, !tbaa !10
  %74 = load ptr, ptr %10, align 8, !tbaa !10
  %75 = load ptr, ptr %6, align 8, !tbaa !36
  %76 = getelementptr inbounds nuw %struct.H5L_info2_t, ptr %75, i32 0, i32 4
  %77 = load i64, ptr %76, align 8, !tbaa !31
  %78 = add i64 %77, 1
  %79 = call i32 @H5Lget_val(i64 noundef %72, ptr noundef %73, ptr noundef %74, i64 noundef %78, i64 noundef 0)
  %80 = icmp slt i32 %79, 0
  br i1 %80, label %81, label %84

81:                                               ; preds = %69
  %82 = load ptr, ptr %10, align 8, !tbaa !10
  %83 = getelementptr inbounds i8, ptr %82, i64 0
  store i8 0, ptr %83, align 1, !tbaa !31
  br label %84

84:                                               ; preds = %81, %69
  %85 = load ptr, ptr %10, align 8, !tbaa !10
  %86 = load ptr, ptr %6, align 8, !tbaa !36
  %87 = getelementptr inbounds nuw %struct.H5L_info2_t, ptr %86, i32 0, i32 4
  %88 = load i64, ptr %87, align 8, !tbaa !31
  %89 = call i32 @H5Lunpack_elink_val(ptr noundef %85, i64 noundef %88, ptr noundef null, ptr noundef %11, ptr noundef %12)
  %90 = icmp sge i32 %89, 0
  br i1 %90, label %91, label %96

91:                                               ; preds = %84
  %92 = load ptr, ptr %5, align 8, !tbaa !10
  %93 = load ptr, ptr %11, align 8, !tbaa !10
  %94 = load ptr, ptr %12, align 8, !tbaa !10
  %95 = call i32 (ptr, ...) @printf(ptr noundef @.str.25, ptr noundef @.str.26, ptr noundef %92, ptr noundef %93, ptr noundef %94)
  br label %96

96:                                               ; preds = %91, %84
  %97 = load ptr, ptr %10, align 8, !tbaa !10
  call void @free(ptr noundef %97) #10
  br label %98

98:                                               ; preds = %96, %61
  call void @llvm.lifetime.end.p0(i64 8, ptr %12) #10
  call void @llvm.lifetime.end.p0(i64 8, ptr %11) #10
  call void @llvm.lifetime.end.p0(i64 8, ptr %10) #10
  br label %102

99:                                               ; preds = %56
  %100 = load ptr, ptr %5, align 8, !tbaa !10
  %101 = call i32 (ptr, ...) @printf(ptr noundef @.str.24, ptr noundef @.str.26, ptr noundef %100)
  br label %102

102:                                              ; preds = %99, %98
  br label %108

103:                                              ; preds = %3
  store i32 -1, ptr %4, align 4
  store i32 1, ptr %13, align 4
  br label %109

104:                                              ; preds = %3, %3
  br label %105

105:                                              ; preds = %3, %104
  %106 = load ptr, ptr %5, align 8, !tbaa !10
  %107 = call i32 (ptr, ...) @printf(ptr noundef @.str.27, ptr noundef @.str.28, ptr noundef %106)
  br label %108

108:                                              ; preds = %105, %102, %55
  store i32 0, ptr %4, align 4
  store i32 1, ptr %13, align 4
  br label %109

109:                                              ; preds = %108, %103
  call void @llvm.lifetime.end.p0(i64 8, ptr %8) #10
  %110 = load i32, ptr %4, align 4
  ret i32 %110
}