; Function Attrs: nounwind uwtable
define internal range(i32 -1, 1) i32 @trav_print_visit_lnk(ptr noundef %0, ptr noundef readonly captures(none) %1, ptr noundef readonly captures(none) %2) #1 {
  %4 = alloca ptr, align 8
  %5 = alloca ptr, align 8
  %6 = load i32, ptr %1, align 8, !tbaa !32
  switch i32 %6, label %45 [
    i32 1, label %7
    i32 64, label %22
    i32 0, label %47
  ]

7:                                                ; preds = %3
  %8 = getelementptr inbounds nuw i8, ptr %1, i64 24
  %9 = load i64, ptr %8, align 8, !tbaa !28
  %.not32 = icmp eq i64 %9, 0
  br i1 %.not32, label %20, label %10

10:                                               ; preds = %7
  %11 = add i64 %9, 1
  %12 = tail call noalias ptr @malloc(i64 noundef %11) #21
  %.not33 = icmp eq ptr %12, null
  br i1 %.not33, label %47, label %13

13:                                               ; preds = %10
  %14 = load i64, ptr %2, align 8, !tbaa !93
  %15 = tail call i32 @H5Lget_val(i64 noundef %14, ptr noundef %0, ptr noundef nonnull %12, i64 noundef %11, i64 noundef 0) #18
  %16 = icmp slt i32 %15, 0
  br i1 %16, label %17, label %18

17:                                               ; preds = %13
  store i8 0, ptr %12, align 1, !tbaa !28
  br label %18

18:                                               ; preds = %17, %13
  %19 = tail call i32 (ptr, ...) @printf(ptr noundef nonnull dereferenceable(1) @.str.22, ptr noundef nonnull @.str.23, ptr noundef %0, ptr noundef nonnull %12)
  tail call void @free(ptr noundef nonnull %12) #18
  br label %47

20:                                               ; preds = %7
  %21 = tail call i32 (ptr, ...) @printf(ptr noundef nonnull dereferenceable(1) @.str.24, ptr noundef nonnull @.str.23, ptr noundef %0)
  br label %47

22:                                               ; preds = %3
  %23 = getelementptr inbounds nuw i8, ptr %1, i64 24
  %24 = load i64, ptr %23, align 8, !tbaa !28
  %.not = icmp eq i64 %24, 0
  br i1 %.not, label %43, label %25

25:                                               ; preds = %22
  call void @llvm.lifetime.start.p0(i64 8, ptr nonnull %4) #18
  store ptr null, ptr %4, align 8, !tbaa !97
  call void @llvm.lifetime.start.p0(i64 8, ptr nonnull %5) #18
  store ptr null, ptr %5, align 8, !tbaa !97
  %26 = add i64 %24, 1
  %27 = tail call noalias ptr @malloc(i64 noundef %26) #21
  %.not31 = icmp eq ptr %27, null
  br i1 %.not31, label %42, label %28

28:                                               ; preds = %25
  %29 = load i64, ptr %2, align 8, !tbaa !93
  %30 = tail call i32 @H5Lget_val(i64 noundef %29, ptr noundef %0, ptr noundef nonnull %27, i64 noundef %26, i64 noundef 0) #18
  %31 = icmp slt i32 %30, 0
  br i1 %31, label %32, label %33

32:                                               ; preds = %28
  store i8 0, ptr %27, align 1, !tbaa !28
  br label %33

33:                                               ; preds = %32, %28
  %34 = load i64, ptr %23, align 8, !tbaa !28
  %35 = call i32 @H5Lunpack_elink_val(ptr noundef nonnull %27, i64 noundef %34, ptr noundef null, ptr noundef nonnull %4, ptr noundef nonnull %5) #18
  %36 = icmp sgt i32 %35, -1
  br i1 %36, label %37, label %41

37:                                               ; preds = %33
  %38 = load ptr, ptr %4, align 8, !tbaa !97
  %39 = load ptr, ptr %5, align 8, !tbaa !97
  %40 = call i32 (ptr, ...) @printf(ptr noundef nonnull dereferenceable(1) @.str.25, ptr noundef nonnull @.str.26, ptr noundef %0, ptr noundef %38, ptr noundef %39)
  br label %41

41:                                               ; preds = %37, %33
  call void @free(ptr noundef nonnull %27) #18
  br label %42

42:                                               ; preds = %41, %25
  call void @llvm.lifetime.end.p0(i64 8, ptr nonnull %5) #18
  call void @llvm.lifetime.end.p0(i64 8, ptr nonnull %4) #18
  br label %47

43:                                               ; preds = %22
  %44 = tail call i32 (ptr, ...) @printf(ptr noundef nonnull dereferenceable(1) @.str.24, ptr noundef nonnull @.str.26, ptr noundef %0)
  br label %47

45:                                               ; preds = %3
  %46 = tail call i32 (ptr, ...) @printf(ptr noundef nonnull dereferenceable(1) @.str.27, ptr noundef nonnull @.str.28, ptr noundef %0)
  br label %47

47:                                               ; preds = %45, %20, %43, %42, %18, %10, %3
  %.0 = phi i32 [ -1, %3 ], [ 0, %10 ], [ 0, %18 ], [ 0, %42 ], [ 0, %43 ], [ 0, %20 ], [ 0, %45 ]
  ret i32 %.0
}